target datalayout = "e-m:e-p270:32:32-p271:32:32-p272:64:64-i64:64-i128:128-f80:128-n8:16:32:64-S128"
target triple = "x86_64-pc-linux-gnu"

%struct._lv_obj_t = type { ptr, ptr, ptr, ptr, ptr, %struct.lv_area_t, i32, i16, i16 }
%struct.lv_area_t = type { i32, i32, i32, i32 }

; Function Attrs: nounwind uwtable
define ptr @lv_obj_get_parent(ptr noundef %0) #0 {
  %2 = alloca ptr, align 8
  %3 = alloca ptr, align 8
  store ptr %0, ptr %3, align 8, !tbaa !3
  %4 = load ptr, ptr %3, align 8, !tbaa !3
  %5 = icmp eq ptr %4, null
  br i1 %5, label %6, label %7

6:                                                ; preds = %1
  store ptr null, ptr %2, align 8
  br label %20

7:                                                ; preds = %1
  br label %8

8:                                                ; preds = %7
  %9 = load ptr, ptr %3, align 8, !tbaa !3
  %10 = icmp ne ptr %9, null
  br i1 %10, label %15, label %11

11:                                               ; preds = %8
  br label %12

12:                                               ; preds = %11
  br label %13

13:                                               ; preds = %12
  br label %14

14:                                               ; preds = %13, %14
  br label %14

15:                                               ; preds = %8
  br label %16

16:                                               ; preds = %15
  %17 = load ptr, ptr %3, align 8, !tbaa !3
  %18 = getelementptr inbounds nuw %struct._lv_obj_t, ptr %17, i32 0, i32 1
  %19 = load ptr, ptr %18, align 8, !tbaa !30
  store ptr %19, ptr %2, align 8
  br label %20

20:                                               ; preds = %16, %6
  %21 = load ptr, ptr %2, align 8
  ret ptr %21
}

; Function Attrs: nounwind uwtable
define ptr @lv_obj_get_screen(ptr noundef %0) #0 {
  %2 = alloca ptr, align 8
  %3 = alloca ptr, align 8
  %4 = alloca ptr, align 8
  store ptr %0, ptr %2, align 8, !tbaa !3
  br label %5

5:                                                ; preds = %1
  %6 = load ptr, ptr %2, align 8, !tbaa !3
  %7 = icmp ne ptr %6, null
  br i1 %7, label %12, label %8

8:                                                ; preds = %5
  br label %9

9:                                                ; preds = %8
  br label %10

10:                                               ; preds = %9
  br label %11

11:                                               ; preds = %10, %11
  br label %11

12:                                               ; preds = %5
  br label %13

13:                                               ; preds = %12
  call void @llvm.lifetime.start.p0(i64 8, ptr %3) #3
  %14 = load ptr, ptr %2, align 8, !tbaa !3
  store ptr %14, ptr %3, align 8, !tbaa !3
  call void @llvm.lifetime.start.p0(i64 8, ptr %4) #3
  br label %15

15:                                               ; preds = %19, %13
  %16 = load ptr, ptr %3, align 8, !tbaa !3
  store ptr %16, ptr %4, align 8, !tbaa !3
  %17 = load ptr, ptr %4, align 8, !tbaa !3
  %18 = call ptr @lv_obj_get_parent(ptr noundef %17)
  store ptr %18, ptr %3, align 8, !tbaa !3
  br label %19

19:                                               ; preds = %15
  %20 = load ptr, ptr %3, align 8, !tbaa !3
  %21 = icmp ne ptr %20, null
  br i1 %21, label %15, label %22, !llvm.loop !81

22:                                               ; preds = %19
  %23 = load ptr, ptr %4, align 8, !tbaa !3
  call void @llvm.lifetime.end.p0(i64 8, ptr %4) #3
  call void @llvm.lifetime.end.p0(i64 8, ptr %3) #3
  ret ptr %23
}