; Function Attrs: nofree norecurse nosync nounwind memory(read, inaccessiblemem: none) uwtable
define nonnull ptr @lv_obj_get_screen(ptr noundef readonly captures(address_is_null, ret: address, provenance) %0) local_unnamed_addr #4 {
  %.not = icmp eq ptr %0, null
  br i1 %.not, label %.preheader, label %.preheader8

.preheader:                                       ; preds = %1, %.preheader
  br label %.preheader

.preheader8:                                      ; preds = %1, %.preheader8
  %.0 = phi ptr [ %3, %.preheader8 ], [ %0, %1 ]
  %2 = getelementptr inbounds nuw i8, ptr %.0, i64 8
  %3 = load ptr, ptr %2, align 8, !tbaa !3
  %.not7 = icmp eq ptr %3, null
  br i1 %.not7, label %4, label %.preheader8, !llvm.loop !36

4:                                                ; preds = %.preheader8
  ret ptr %.0
}